
lab3-test:     file format elf32-tradlittlemips

Disassembly of section IROM:

00400000 <__start>:
  400000:	200a4000 	addi	t2,zero,16384
  400004:	014a5020 	add	t2,t2,t2
  400008:	014a5020 	add	t2,t2,t2
  40000c:	014a5020 	add	t2,t2,t2
  400010:	014a5020 	add	t2,t2,t2
  400014:	014a5020 	add	t2,t2,t2
  400018:	014a5020 	add	t2,t2,t2
  40001c:	014a5020 	add	t2,t2,t2
  400020:	014a5020 	add	t2,t2,t2
  400024:	014a5020 	add	t2,t2,t2
  400028:	014a5020 	add	t2,t2,t2
  40002c:	014a5020 	add	t2,t2,t2
  400030:	014a5020 	add	t2,t2,t2
  400034:	014a5020 	add	t2,t2,t2
  400038:	014a5020 	add	t2,t2,t2
  40003c:	200b0001 	addi	t3,zero,1
  400040:	ad4b0000 	sw	t3,0(t2)
  400044:	016b5820 	add	t3,t3,t3
  400048:	ad4b0004 	sw	t3,4(t2)
  40004c:	016b5820 	add	t3,t3,t3
  400050:	ad4b0008 	sw	t3,8(t2)
  400054:	016b5820 	add	t3,t3,t3
  400058:	ad4b000c 	sw	t3,12(t2)
  40005c:	016b5820 	add	t3,t3,t3
  400060:	ad4b0010 	sw	t3,16(t2)
  400064:	016b5820 	add	t3,t3,t3
  400068:	ad4b0014 	sw	t3,20(t2)
  40006c:	016b5820 	add	t3,t3,t3
  400070:	ad4b0018 	sw	t3,24(t2)
  400074:	016b5820 	add	t3,t3,t3
  400078:	ad4b001c 	sw	t3,28(t2)
  40007c:	016b5820 	add	t3,t3,t3
  400080:	ad4b0020 	sw	t3,32(t2)
  400084:	016b5820 	add	t3,t3,t3
  400088:	ad4b0024 	sw	t3,36(t2)
  40008c:	016b5820 	add	t3,t3,t3
  400090:	ad4b0028 	sw	t3,40(t2)
  400094:	016b5820 	add	t3,t3,t3
  400098:	ad4b002c 	sw	t3,44(t2)
  40009c:	016b5820 	add	t3,t3,t3
  4000a0:	ad4b0030 	sw	t3,48(t2)
  4000a4:	016b5820 	add	t3,t3,t3
  4000a8:	ad4b0034 	sw	t3,52(t2)
  4000ac:	016b5820 	add	t3,t3,t3
  4000b0:	ad4b0038 	sw	t3,56(t2)
  4000b4:	016b5820 	add	t3,t3,t3
  4000b8:	ad4b003c 	sw	t3,60(t2)
  4000bc:	016b5820 	add	t3,t3,t3
  4000c0:	ad4b0040 	sw	t3,64(t2)
  4000c4:	016b5820 	add	t3,t3,t3
  4000c8:	ad4b0044 	sw	t3,68(t2)
  4000cc:	016b5820 	add	t3,t3,t3
  4000d0:	ad4b0048 	sw	t3,72(t2)
  4000d4:	016b5820 	add	t3,t3,t3
  4000d8:	ad4b004c 	sw	t3,76(t2)
  4000dc:	016b5820 	add	t3,t3,t3
  4000e0:	ad4b0050 	sw	t3,80(t2)
  4000e4:	016b5820 	add	t3,t3,t3
  4000e8:	ad4b0054 	sw	t3,84(t2)
  4000ec:	016b5820 	add	t3,t3,t3
  4000f0:	ad4b0058 	sw	t3,88(t2)
  4000f4:	016b5820 	add	t3,t3,t3
  4000f8:	ad4b005c 	sw	t3,92(t2)
  4000fc:	016b5820 	add	t3,t3,t3
  400100:	ad4b0060 	sw	t3,96(t2)
  400104:	016b5820 	add	t3,t3,t3
  400108:	ad4b0064 	sw	t3,100(t2)
  40010c:	016b5820 	add	t3,t3,t3
  400110:	ad4b0068 	sw	t3,104(t2)
  400114:	016b5820 	add	t3,t3,t3
  400118:	ad4b006c 	sw	t3,108(t2)
  40011c:	016b5820 	add	t3,t3,t3
  400120:	ad4b0070 	sw	t3,112(t2)
  400124:	016b5820 	add	t3,t3,t3
  400128:	ad4b0074 	sw	t3,116(t2)
  40012c:	016b5820 	add	t3,t3,t3
  400130:	ad4b0078 	sw	t3,120(t2)
  400134:	8d4b0070 	lw	t3,112(t2)
  400138:	8d54006c 	lw	s4,108(t2)
  40013c:	00000020 	add	zero,zero,zero
  400140:	01745825 	or	t3,t3,s4
  400144:	8d540064 	lw	s4,100(t2)
  400148:	00000020 	add	zero,zero,zero
  40014c:	01745825 	or	t3,t3,s4
  400150:	8d54005c 	lw	s4,92(t2)
  400154:	00000020 	add	zero,zero,zero
  400158:	01745825 	or	t3,t3,s4
  40015c:	8d540054 	lw	s4,84(t2)
  400160:	00000020 	add	zero,zero,zero
  400164:	01745825 	or	t3,t3,s4
  400168:	8d540050 	lw	s4,80(t2)
  40016c:	00000020 	add	zero,zero,zero
  400170:	01745825 	or	t3,t3,s4
  400174:	216b0003 	addi	t3,t3,3
  400178:	200c0001 	addi	t4,zero,1
  40017c:	000c6022 	neg	t4,t4
  400180:	8d54006c 	lw	s4,108(t2)
  400184:	00000020 	add	zero,zero,zero
  400188:	01946022 	sub	t4,t4,s4
  40018c:	8d540068 	lw	s4,104(t2)
  400190:	00000020 	add	zero,zero,zero
  400194:	01946022 	sub	t4,t4,s4
  400198:	8d540060 	lw	s4,96(t2)
  40019c:	00000020 	add	zero,zero,zero
  4001a0:	01946022 	sub	t4,t4,s4
  4001a4:	8d54005c 	lw	s4,92(t2)
  4001a8:	00000020 	add	zero,zero,zero
  4001ac:	01946022 	sub	t4,t4,s4
  4001b0:	8d540058 	lw	s4,88(t2)
  4001b4:	00000020 	add	zero,zero,zero
  4001b8:	01946022 	sub	t4,t4,s4
  4001bc:	8d540054 	lw	s4,84(t2)
  4001c0:	00000020 	add	zero,zero,zero
  4001c4:	01946022 	sub	t4,t4,s4
  4001c8:	8d54004c 	lw	s4,76(t2)
  4001cc:	00000020 	add	zero,zero,zero
  4001d0:	01946022 	sub	t4,t4,s4
  4001d4:	8d540048 	lw	s4,72(t2)
  4001d8:	00000020 	add	zero,zero,zero
  4001dc:	01946022 	sub	t4,t4,s4
  4001e0:	200d0001 	addi	t5,zero,1
  4001e4:	000d6822 	neg	t5,t5
  4001e8:	8d540000 	lw	s4,0(t2)
  4001ec:	00000020 	add	zero,zero,zero
  4001f0:	01b46822 	sub	t5,t5,s4
  4001f4:	8d540008 	lw	s4,8(t2)
  4001f8:	00000020 	add	zero,zero,zero
  4001fc:	01b46822 	sub	t5,t5,s4
  400200:	8d54000c 	lw	s4,12(t2)
  400204:	00000020 	add	zero,zero,zero
  400208:	01b46822 	sub	t5,t5,s4
  40020c:	8d540014 	lw	s4,20(t2)
  400210:	00000020 	add	zero,zero,zero
  400214:	01b46822 	sub	t5,t5,s4
  400218:	8d540018 	lw	s4,24(t2)
  40021c:	00000020 	add	zero,zero,zero
  400220:	01b46822 	sub	t5,t5,s4
  400224:	8d54001c 	lw	s4,28(t2)
  400228:	00000020 	add	zero,zero,zero
  40022c:	01b46822 	sub	t5,t5,s4
  400230:	8d540020 	lw	s4,32(t2)
  400234:	00000020 	add	zero,zero,zero
  400238:	01b46822 	sub	t5,t5,s4
  40023c:	8d540028 	lw	s4,40(t2)
  400240:	00000020 	add	zero,zero,zero
  400244:	01b46822 	sub	t5,t5,s4
  400248:	8d54002c 	lw	s4,44(t2)
  40024c:	00000020 	add	zero,zero,zero
  400250:	01b46822 	sub	t5,t5,s4
  400254:	018d6026 	xor	t4,t4,t5
  400258:	200d0000 	addi	t5,zero,0
  40025c:	8d540010 	lw	s4,16(t2)
  400260:	00000020 	add	zero,zero,zero
  400264:	01b46820 	add	t5,t5,s4
  400268:	8d540028 	lw	s4,40(t2)
  40026c:	00000020 	add	zero,zero,zero
  400270:	01b46820 	add	t5,t5,s4
  400274:	8d540034 	lw	s4,52(t2)
  400278:	00000020 	add	zero,zero,zero
  40027c:	01b46820 	add	t5,t5,s4
  400280:	8d54003c 	lw	s4,60(t2)
  400284:	00000020 	add	zero,zero,zero
  400288:	01b46820 	add	t5,t5,s4
  40028c:	8d540040 	lw	s4,64(t2)
  400290:	00000020 	add	zero,zero,zero
  400294:	01b46820 	add	t5,t5,s4
  400298:	8d540054 	lw	s4,84(t2)
  40029c:	00000020 	add	zero,zero,zero
  4002a0:	01b46820 	add	t5,t5,s4
  4002a4:	8d540064 	lw	s4,100(t2)
  4002a8:	00000020 	add	zero,zero,zero
  4002ac:	01b46820 	add	t5,t5,s4
  4002b0:	8d540068 	lw	s4,104(t2)
  4002b4:	00000020 	add	zero,zero,zero
  4002b8:	01b46820 	add	t5,t5,s4
  4002bc:	8d540074 	lw	s4,116(t2)
  4002c0:	00000020 	add	zero,zero,zero
  4002c4:	200e0000 	addi	t6,zero,0
  4002c8:	8d540000 	lw	s4,0(t2)
  4002cc:	00000020 	add	zero,zero,zero
  4002d0:	01d47020 	add	t6,t6,s4
  4002d4:	8d540010 	lw	s4,16(t2)
  4002d8:	00000020 	add	zero,zero,zero
  4002dc:	01d47020 	add	t6,t6,s4
  4002e0:	8d540014 	lw	s4,20(t2)
  4002e4:	00000020 	add	zero,zero,zero
  4002e8:	01d47020 	add	t6,t6,s4
  4002ec:	8d540020 	lw	s4,32(t2)
  4002f0:	00000020 	add	zero,zero,zero
  4002f4:	01d47020 	add	t6,t6,s4
  4002f8:	8d540028 	lw	s4,40(t2)
  4002fc:	00000020 	add	zero,zero,zero
  400300:	01d47020 	add	t6,t6,s4
  400304:	8d540030 	lw	s4,48(t2)
  400308:	00000020 	add	zero,zero,zero
  40030c:	01d47020 	add	t6,t6,s4
  400310:	8d540034 	lw	s4,52(t2)
  400314:	00000020 	add	zero,zero,zero
  400318:	01d47020 	add	t6,t6,s4
  40031c:	8d540038 	lw	s4,56(t2)
  400320:	00000020 	add	zero,zero,zero
  400324:	01d47020 	add	t6,t6,s4
  400328:	8d54003c 	lw	s4,60(t2)
  40032c:	00000020 	add	zero,zero,zero
  400330:	01d47020 	add	t6,t6,s4
  400334:	8d540060 	lw	s4,96(t2)
  400338:	00000020 	add	zero,zero,zero
  40033c:	01d47020 	add	t6,t6,s4
  400340:	8d540068 	lw	s4,104(t2)
  400344:	00000020 	add	zero,zero,zero
  400348:	01d47020 	add	t6,t6,s4
  40034c:	8d54006c 	lw	s4,108(t2)
  400350:	00000020 	add	zero,zero,zero
  400354:	01d47020 	add	t6,t6,s4
  400358:	8d540070 	lw	s4,112(t2)
  40035c:	00000020 	add	zero,zero,zero
  400360:	01d47020 	add	t6,t6,s4
  400364:	8d540074 	lw	s4,116(t2)
  400368:	00000020 	add	zero,zero,zero
  40036c:	01d47020 	add	t6,t6,s4
  400370:	01ae6827 	nor	t5,t5,t6
  400374:	01ce7026 	xor	t6,t6,t6
  400378:	014a5026 	xor	t2,t2,t2
  40037c:	00000000 	nop
